target datalayout = "e-m:e-p270:32:32-p271:32:32-p272:64:64-i64:64-i128:128-f80:128-n8:16:32:64-S128"
target triple = "x86_64-pc-linux-gnu"

%struct.If_Man_t_ = type { ptr, ptr, ptr, ptr, ptr, ptr, ptr, ptr, [5 x i32], i32, float, float, float, float, i32, float, i32, i32, [4 x ptr], ptr, i32, i32, i32, ptr, [3 x [32 x i32]], i32, i32, i32, ptr, ptr, ptr, ptr, ptr, ptr, ptr, i32, i32, i32, [16 x i32], i32, i32, i32, i32, ptr, ptr, ptr, ptr, ptr, i32, i32, [32 x i32], [32 x i32], i32, i32, i32, i32, ptr, [16 x ptr], [16 x ptr], [16 x ptr], [16 x ptr], [16 x ptr], [16 x ptr], [16 x ptr], ptr, ptr, ptr, ptr, [32 x i8], i32, i32, i32, [6 x i64], [2 x i32], [2 x i32], ptr, [15 x i32], ptr, ptr, ptr, [16 x i32], ptr, ptr, ptr, ptr, [2 x i32], [2 x i32], [2 x ptr], ptr }
%struct.If_Cut_t_ = type <{ float, float, float, float, i32, i32, i32, i48, [0 x i32] }>
%struct.If_Par_t_ = type { i32, i32, i32, i32, i32, i32, float, float, i32, i32, i32, i32, i32, i32, i32, i32, i32, i32, i32, i32, i32, i32, i32, i32, i32, i32, i32, i32, i32, i32, i32, i32, i32, i32, i32, i32, i32, i32, i32, i32, i32, i32, i32, i32, i32, i32, i32, i32, i32, ptr, float, i32, i32, i32, i32, i32, i32, i32, i32, i32, i32, i32, i32, i32, i32, float, float, float, ptr, ptr, ptr, ptr, ptr, ptr, ptr, ptr, ptr }
%struct.If_Obj_t_ = type { i32, i32, i32, i32, i32, i32, ptr, ptr, ptr, float, float, float, %union.anon, ptr, %struct.If_Cut_t_ }
%union.anon = type { ptr }
%struct.Vec_Int_t_ = type { i32, i32, ptr }
%struct.Vec_Ptr_t_ = type { i32, i32, ptr }
%struct.Vec_Str_t_ = type { i32, i32, ptr }

; Function Attrs: nounwind uwtable
define internal i32 @Abc_LitNotCond(i32 noundef %0, i32 noundef %1) #0 {
  %3 = alloca i32, align 4
  %4 = alloca i32, align 4
  store i32 %0, ptr %3, align 4
  store i32 %1, ptr %4, align 4
  %5 = load i32, ptr %3, align 4
  %6 = load i32, ptr %4, align 4
  %7 = icmp sgt i32 %6, 0
  %8 = zext i1 %7 to i32
  %9 = xor i32 %5, %8
  ret i32 %9
}

; Function Attrs: nounwind uwtable
define internal i32 @Abc_LitIsCompl(i32 noundef %0) #0 {
  %2 = alloca i32, align 4
  store i32 %0, ptr %2, align 4
  %3 = load i32, ptr %2, align 4
  %4 = and i32 %3, 1
  ret i32 %4
}

; Function Attrs: nounwind uwtable
define internal ptr @Vec_PtrEntry(ptr noundef %0, i32 noundef %1) #0 {
  %3 = alloca ptr, align 8
  %4 = alloca i32, align 4
  store ptr %0, ptr %3, align 8
  store i32 %1, ptr %4, align 4
  %5 = load ptr, ptr %3, align 8
  %6 = getelementptr inbounds %struct.Vec_Ptr_t_, ptr %5, i32 0, i32 2
  %7 = load ptr, ptr %6, align 8
  %8 = load i32, ptr %4, align 4
  %9 = sext i32 %8 to i64
  %10 = getelementptr inbounds ptr, ptr %7, i64 %9
  %11 = load ptr, ptr %10, align 8
  ret ptr %11
}

; Function Attrs: nounwind uwtable
define internal i32 @Abc_Lit2LitL(ptr noundef %0, i32 noundef %1) #0 {
  %3 = alloca ptr, align 8
  %4 = alloca i32, align 4
  store ptr %0, ptr %3, align 8
  store i32 %1, ptr %4, align 4
  %5 = load ptr, ptr %3, align 8
  %6 = load i32, ptr %4, align 4
  %7 = call i32 @Abc_Lit2Var(i32 noundef %6)
  %8 = sext i32 %7 to i64
  %9 = getelementptr inbounds i32, ptr %5, i64 %8
  %10 = load i32, ptr %9, align 4
  %11 = load i32, ptr %4, align 4
  %12 = call i32 @Abc_LitIsCompl(i32 noundef %11)
  %13 = call i32 @Abc_LitNotCond(i32 noundef %10, i32 noundef %12)
  ret i32 %13
}

; Function Attrs: nounwind uwtable
define internal i32 @If_CutTruthLit(ptr noundef %0) #0 {
  %2 = alloca ptr, align 8
  store ptr %0, ptr %2, align 8
  %3 = load ptr, ptr %2, align 8
  %4 = getelementptr inbounds %struct.If_Cut_t_, ptr %3, i32 0, i32 4
  %5 = load i32, ptr %4, align 4
  ret i32 %5
}

; Function Attrs: nounwind uwtable
define internal ptr @Vec_IntArray(ptr noundef %0) #0 {
  %2 = alloca ptr, align 8
  store ptr %0, ptr %2, align 8
  %3 = load ptr, ptr %2, align 8
  %4 = getelementptr inbounds %struct.Vec_Int_t_, ptr %3, i32 0, i32 2
  %5 = load ptr, ptr %4, align 8
  ret ptr %5
}

; Function Attrs: nounwind uwtable
define internal ptr @Vec_StrEntryP(ptr noundef %0, i32 noundef %1) #0 {
  %3 = alloca ptr, align 8
  %4 = alloca i32, align 4
  store ptr %0, ptr %3, align 8
  store i32 %1, ptr %4, align 4
  %5 = load ptr, ptr %3, align 8
  %6 = getelementptr inbounds %struct.Vec_Str_t_, ptr %5, i32 0, i32 2
  %7 = load ptr, ptr %6, align 8
  %8 = load i32, ptr %4, align 4
  %9 = sext i32 %8 to i64
  %10 = getelementptr inbounds i8, ptr %7, i64 %9
  ret ptr %10
}

; Function Attrs: nounwind uwtable
define internal i32 @Abc_MaxInt(i32 noundef %0, i32 noundef %1) #0 {
  %3 = alloca i32, align 4
  %4 = alloca i32, align 4
  store i32 %0, ptr %3, align 4
  store i32 %1, ptr %4, align 4
  %5 = load i32, ptr %3, align 4
  %6 = load i32, ptr %4, align 4
  %7 = icmp sgt i32 %5, %6
  br i1 %7, label %8, label %10

8:                                                ; preds = %2
  %9 = load i32, ptr %3, align 4
  br label %12

10:                                               ; preds = %2
  %11 = load i32, ptr %4, align 4
  br label %12

12:                                               ; preds = %10, %8
  %13 = phi i32 [ %9, %8 ], [ %11, %10 ]
  ret i32 %13
}

; Function Attrs: nounwind uwtable
define internal ptr @If_ManObj(ptr noundef %0, i32 noundef %1) #0 {
  %3 = alloca ptr, align 8
  %4 = alloca i32, align 4
  store ptr %0, ptr %3, align 8
  store i32 %1, ptr %4, align 4
  %5 = load ptr, ptr %3, align 8
  %6 = getelementptr inbounds %struct.If_Man_t_, ptr %5, i32 0, i32 5
  %7 = load ptr, ptr %6, align 8
  %8 = load i32, ptr %4, align 4
  %9 = call ptr @Vec_PtrEntry(ptr noundef %7, i32 noundef %8)
  ret ptr %9
}

; Function Attrs: nounwind uwtable
define internal i32 @If_CutDsdLit(ptr noundef %0, ptr noundef %1) #0 {
  %3 = alloca ptr, align 8
  %4 = alloca ptr, align 8
  store ptr %0, ptr %3, align 8
  store ptr %1, ptr %4, align 8
  %5 = load ptr, ptr %3, align 8
  %6 = getelementptr inbounds %struct.If_Man_t_, ptr %5, i32 0, i32 59
  %7 = load ptr, ptr %4, align 8
  %8 = getelementptr inbounds %struct.If_Cut_t_, ptr %7, i32 0, i32 7
  %9 = load i64, ptr %8, align 4
  %10 = lshr i64 %9, 24
  %11 = and i64 %10, 255
  %12 = trunc i64 %11 to i32
  %13 = zext i32 %12 to i64
  %14 = getelementptr inbounds [16 x ptr], ptr %6, i64 0, i64 %13
  %15 = load ptr, ptr %14, align 8
  %16 = call ptr @Vec_IntArray(ptr noundef %15)
  %17 = load ptr, ptr %4, align 8
  %18 = call i32 @If_CutTruthLit(ptr noundef %17)
  %19 = call i32 @Abc_Lit2LitL(ptr noundef %16, i32 noundef %18)
  ret i32 %19
}

; Function Attrs: nounwind uwtable
define internal i32 @Abc_Lit2Var(i32 noundef %0) #0 {
  %2 = alloca i32, align 4
  store i32 %0, ptr %2, align 4
  %3 = load i32, ptr %2, align 4
  %4 = ashr i32 %3, 1
  ret i32 %4
}

; Function Attrs: nounwind uwtable
define internal i32 @If_CutLeaveNum(ptr noundef %0) #0 {
  %2 = alloca ptr, align 8
  store ptr %0, ptr %2, align 8
  %3 = load ptr, ptr %2, align 8
  %4 = getelementptr inbounds %struct.If_Cut_t_, ptr %3, i32 0, i32 7
  %5 = load i64, ptr %4, align 4
  %6 = lshr i64 %5, 24
  %7 = and i64 %6, 255
  %8 = trunc i64 %7 to i32
  ret i32 %8
}

; Function Attrs: nounwind uwtable
define internal ptr @If_CutDsdPerm(ptr noundef %0, ptr noundef %1) #0 {
  %3 = alloca ptr, align 8
  %4 = alloca ptr, align 8
  store ptr %0, ptr %3, align 8
  store ptr %1, ptr %4, align 8
  %5 = load ptr, ptr %3, align 8
  %6 = getelementptr inbounds %struct.If_Man_t_, ptr %5, i32 0, i32 60
  %7 = load ptr, ptr %4, align 8
  %8 = getelementptr inbounds %struct.If_Cut_t_, ptr %7, i32 0, i32 7
  %9 = load i64, ptr %8, align 4
  %10 = lshr i64 %9, 24
  %11 = and i64 %10, 255
  %12 = trunc i64 %11 to i32
  %13 = zext i32 %12 to i64
  %14 = getelementptr inbounds [16 x ptr], ptr %6, i64 0, i64 %13
  %15 = load ptr, ptr %14, align 8
  %16 = load ptr, ptr %4, align 8
  %17 = getelementptr inbounds %struct.If_Cut_t_, ptr %16, i32 0, i32 4
  %18 = load i32, ptr %17, align 4
  %19 = call i32 @Abc_Lit2Var(i32 noundef %18)
  %20 = load ptr, ptr %4, align 8
  %21 = getelementptr inbounds %struct.If_Cut_t_, ptr %20, i32 0, i32 7
  %22 = load i64, ptr %21, align 4
  %23 = lshr i64 %22, 24
  %24 = and i64 %23, 255
  %25 = trunc i64 %24 to i32
  %26 = call i32 @Abc_MaxInt(i32 noundef 6, i32 noundef %25)
  %27 = mul nsw i32 %19, %26
  %28 = call ptr @Vec_StrEntryP(ptr noundef %15, i32 noundef %27)
  ret ptr %28
}

; Function Attrs: nounwind uwtable
define internal ptr @If_ObjCutBest(ptr noundef %0) #0 {
  %2 = alloca ptr, align 8
  store ptr %0, ptr %2, align 8
  %3 = load ptr, ptr %2, align 8
  %4 = getelementptr inbounds %struct.If_Obj_t_, ptr %3, i32 0, i32 14
  ret ptr %4
}

; Function Attrs: nounwind uwtable
define internal ptr @If_CutLeaf(ptr noundef %0, ptr noundef %1, i32 noundef %2) #0 {
  %4 = alloca ptr, align 8
  %5 = alloca ptr, align 8
  %6 = alloca i32, align 4
  store ptr %0, ptr %4, align 8
  store ptr %1, ptr %5, align 8
  store i32 %2, ptr %6, align 4
  %7 = load ptr, ptr %4, align 8
  %8 = load ptr, ptr %5, align 8
  %9 = getelementptr inbounds %struct.If_Cut_t_, ptr %8, i32 0, i32 8
  %10 = load i32, ptr %6, align 4
  %11 = sext i32 %10 to i64
  %12 = getelementptr inbounds [0 x i32], ptr %9, i64 0, i64 %11
  %13 = load i32, ptr %12, align 4
  %14 = call ptr @If_ManObj(ptr noundef %7, i32 noundef %13)
  ret ptr %14
}

; Function Attrs: nounwind uwtable
define i32 @If_CutLutBalanceEval(ptr noundef %0, ptr noundef %1) #0 {
  %3 = alloca i32, align 4
  %4 = alloca ptr, align 8
  %5 = alloca ptr, align 8
  %6 = alloca ptr, align 8
  %7 = alloca i32, align 4
  %8 = alloca i32, align 4
  %9 = alloca [15 x i32], align 16
  %10 = alloca i32, align 4
  %11 = alloca i32, align 4
  %12 = alloca i32, align 4
  store ptr %0, ptr %4, align 8
  store ptr %1, ptr %5, align 8
  %13 = load ptr, ptr %5, align 8
  %14 = getelementptr inbounds %struct.If_Cut_t_, ptr %13, i32 0, i32 7
  %15 = load i64, ptr %14, align 4
  %16 = and i64 %15, -8193
  %17 = or i64 %16, 8192
  store i64 %17, ptr %14, align 4
  %18 = load ptr, ptr %5, align 8
  %19 = getelementptr inbounds %struct.If_Cut_t_, ptr %18, i32 0, i32 7
  %20 = load i64, ptr %19, align 4
  %21 = lshr i64 %20, 24
  %22 = and i64 %21, 255
  %23 = trunc i64 %22 to i32
  %24 = icmp sgt i32 %23, 1
  %25 = select i1 %24, i32 1, i32 0
  %26 = load ptr, ptr %5, align 8
  %27 = getelementptr inbounds %struct.If_Cut_t_, ptr %26, i32 0, i32 7
  %28 = zext i32 %25 to i64
  %29 = load i64, ptr %27, align 4
  %30 = and i64 %28, 4095
  %31 = and i64 %29, -4096
  %32 = or i64 %31, %30
  store i64 %32, ptr %27, align 4
  %33 = load ptr, ptr %5, align 8
  %34 = getelementptr inbounds %struct.If_Cut_t_, ptr %33, i32 0, i32 5
  store i32 0, ptr %34, align 4
  %35 = load ptr, ptr %5, align 8
  %36 = getelementptr inbounds %struct.If_Cut_t_, ptr %35, i32 0, i32 7
  %37 = load i64, ptr %36, align 4
  %38 = lshr i64 %37, 24
  %39 = and i64 %38, 255
  %40 = trunc i64 %39 to i32
  %41 = icmp eq i32 %40, 0
  br i1 %41, label %42, label %43

42:                                               ; preds = %2
  store i32 0, ptr %3, align 4
  br label %186

43:                                               ; preds = %2
  %44 = load ptr, ptr %5, align 8
  %45 = getelementptr inbounds %struct.If_Cut_t_, ptr %44, i32 0, i32 7
  %46 = load i64, ptr %45, align 4
  %47 = lshr i64 %46, 24
  %48 = and i64 %47, 255
  %49 = trunc i64 %48 to i32
  %50 = icmp eq i32 %49, 1
  br i1 %50, label %51, label %59

51:                                               ; preds = %43
  %52 = load ptr, ptr %4, align 8
  %53 = load ptr, ptr %5, align 8
  %54 = call ptr @If_CutLeaf(ptr noundef %52, ptr noundef %53, i32 noundef 0)
  %55 = call ptr @If_ObjCutBest(ptr noundef %54)
  %56 = getelementptr inbounds %struct.If_Cut_t_, ptr %55, i32 0, i32 3
  %57 = load float, ptr %56, align 4
  %58 = fptosi float %57 to i32
  store i32 %58, ptr %3, align 4
  br label %186

59:                                               ; preds = %43
  %60 = load ptr, ptr %4, align 8
  %61 = load ptr, ptr %5, align 8
  %62 = call ptr @If_CutDsdPerm(ptr noundef %60, ptr noundef %61)
  store ptr %62, ptr %6, align 8
  %63 = load ptr, ptr %4, align 8
  %64 = getelementptr inbounds %struct.If_Man_t_, ptr %63, i32 0, i32 1
  %65 = load ptr, ptr %64, align 8
  %66 = getelementptr inbounds %struct.If_Par_t_, ptr %65, i32 0, i32 49
  %67 = load ptr, ptr %66, align 8
  %68 = getelementptr inbounds i8, ptr %67, i64 0
  %69 = load i8, ptr %68, align 1
  %70 = sext i8 %69 to i32
  %71 = sub nsw i32 %70, 48
  store i32 %71, ptr %7, align 4
  store i32 -1, ptr %10, align 4
  store i32 0, ptr %11, align 4
  store i32 0, ptr %12, align 4
  store i32 0, ptr %8, align 4
  br label %72

72:                                               ; preds = %126, %59
  %73 = load i32, ptr %8, align 4
  %74 = load ptr, ptr %5, align 8
  %75 = call i32 @If_CutLeaveNum(ptr noundef %74)
  %76 = icmp slt i32 %73, %75
  br i1 %76, label %77, label %129

77:                                               ; preds = %72
  %78 = load ptr, ptr %4, align 8
  %79 = load ptr, ptr %5, align 8
  %80 = load ptr, ptr %6, align 8
  %81 = load i32, ptr %8, align 4
  %82 = sext i32 %81 to i64
  %83 = getelementptr inbounds i8, ptr %80, i64 %82
  %84 = load i8, ptr %83, align 1
  %85 = sext i8 %84 to i32
  %86 = call i32 @Abc_Lit2Var(i32 noundef %85)
  %87 = call ptr @If_CutLeaf(ptr noundef %78, ptr noundef %79, i32 noundef %86)
  %88 = call ptr @If_ObjCutBest(ptr noundef %87)
  %89 = getelementptr inbounds %struct.If_Cut_t_, ptr %88, i32 0, i32 3
  %90 = load float, ptr %89, align 4
  %91 = fptosi float %90 to i32
  %92 = load i32, ptr %8, align 4
  %93 = sext i32 %92 to i64
  %94 = getelementptr inbounds [15 x i32], ptr %9, i64 0, i64 %93
  store i32 %91, ptr %94, align 4
  %95 = load i32, ptr %10, align 4
  %96 = load i32, ptr %8, align 4
  %97 = sext i32 %96 to i64
  %98 = getelementptr inbounds [15 x i32], ptr %9, i64 0, i64 %97
  %99 = load i32, ptr %98, align 4
  %100 = icmp slt i32 %95, %99
  br i1 %100, label %101, label %109

101:                                              ; preds = %77
  %102 = load i32, ptr %8, align 4
  %103 = sext i32 %102 to i64
  %104 = getelementptr inbounds [15 x i32], ptr %9, i64 0, i64 %103
  %105 = load i32, ptr %104, align 4
  store i32 %105, ptr %10, align 4
  store i32 1, ptr %11, align 4
  %106 = load i32, ptr %8, align 4
  %107 = shl i32 %106, 1
  %108 = shl i32 1, %107
  store i32 %108, ptr %12, align 4
  br label %125

109:                                              ; preds = %77
  %110 = load i32, ptr %10, align 4
  %111 = load i32, ptr %8, align 4
  %112 = sext i32 %111 to i64
  %113 = getelementptr inbounds [15 x i32], ptr %9, i64 0, i64 %112
  %114 = load i32, ptr %113, align 4
  %115 = icmp eq i32 %110, %114
  br i1 %115, label %116, label %124

116:                                              ; preds = %109
  %117 = load i32, ptr %11, align 4
  %118 = add nsw i32 %117, 1
  store i32 %118, ptr %11, align 4
  %119 = load i32, ptr %8, align 4
  %120 = shl i32 %119, 1
  %121 = shl i32 1, %120
  %122 = load i32, ptr %12, align 4
  %123 = or i32 %122, %121
  store i32 %123, ptr %12, align 4
  br label %124

124:                                              ; preds = %116, %109
  br label %125

125:                                              ; preds = %124, %101
  br label %126

126:                                              ; preds = %125
  %127 = load i32, ptr %8, align 4
  %128 = add nsw i32 %127, 1
  store i32 %128, ptr %8, align 4
  br label %72, !llvm.loop !36

129:                                              ; preds = %72
  %130 = load ptr, ptr %5, align 8
  %131 = call i32 @If_CutLeaveNum(ptr noundef %130)
  %132 = load i32, ptr %7, align 4
  %133 = icmp sle i32 %131, %132
  br i1 %133, label %134, label %137

134:                                              ; preds = %129
  %135 = load i32, ptr %10, align 4
  %136 = add nsw i32 %135, 1
  store i32 %136, ptr %3, align 4
  br label %186

137:                                              ; preds = %129
  %138 = load ptr, ptr %5, align 8
  %139 = getelementptr inbounds %struct.If_Cut_t_, ptr %138, i32 0, i32 7
  %140 = load i64, ptr %139, align 4
  %141 = and i64 %140, -4096
  %142 = or i64 %141, 2
  store i64 %142, ptr %139, align 4
  %143 = load i32, ptr %11, align 4
  %144 = load i32, ptr %7, align 4
  %145 = sub nsw i32 %144, 1
  %146 = icmp sle i32 %143, %145
  br i1 %146, label %147, label %167

147:                                              ; preds = %137
  %148 = load ptr, ptr %4, align 8
  %149 = getelementptr inbounds %struct.If_Man_t_, ptr %148, i32 0, i32 56
  %150 = load ptr, ptr %149, align 8
  %151 = load ptr, ptr %4, align 8
  %152 = load ptr, ptr %5, align 8
  %153 = call i32 @If_CutDsdLit(ptr noundef %151, ptr noundef %152)
  %154 = load i32, ptr %7, align 4
  %155 = load i32, ptr %12, align 4
  %156 = call i32 @If_DsdManCheckXY(ptr noundef %150, i32 noundef %153, i32 noundef %154, i32 noundef 1, i32 noundef %155, i32 noundef 0, i32 noundef 0)
  %157 = load ptr, ptr %5, align 8
  %158 = getelementptr inbounds %struct.If_Cut_t_, ptr %157, i32 0, i32 5
  store i32 %156, ptr %158, align 4
  %159 = load ptr, ptr %5, align 8
  %160 = getelementptr inbounds %struct.If_Cut_t_, ptr %159, i32 0, i32 5
  %161 = load i32, ptr %160, align 4
  %162 = icmp sgt i32 %161, 0
  br i1 %162, label %163, label %166

163:                                              ; preds = %147
  %164 = load i32, ptr %10, align 4
  %165 = add nsw i32 %164, 1
  store i32 %165, ptr %3, align 4
  br label %186

166:                                              ; preds = %147
  br label %167

167:                                              ; preds = %166, %137
  %168 = load ptr, ptr %4, align 8
  %169 = getelementptr inbounds %struct.If_Man_t_, ptr %168, i32 0, i32 56
  %170 = load ptr, ptr %169, align 8
  %171 = load ptr, ptr %4, align 8
  %172 = load ptr, ptr %5, align 8
  %173 = call i32 @If_CutDsdLit(ptr noundef %171, ptr noundef %172)
  %174 = load i32, ptr %7, align 4
  %175 = call i32 @If_DsdManCheckXY(ptr noundef %170, i32 noundef %173, i32 noundef %174, i32 noundef 1, i32 noundef 0, i32 noundef 0, i32 noundef 0)
  %176 = load ptr, ptr %5, align 8
  %177 = getelementptr inbounds %struct.If_Cut_t_, ptr %176, i32 0, i32 5
  store i32 %175, ptr %177, align 4
  %178 = load ptr, ptr %5, align 8
  %179 = getelementptr inbounds %struct.If_Cut_t_, ptr %178, i32 0, i32 5
  %180 = load i32, ptr %179, align 4
  %181 = icmp eq i32 %180, 0
  br i1 %181, label %182, label %183

182:                                              ; preds = %167
  store i32 -1, ptr %3, align 4
  br label %186

183:                                              ; preds = %167
  %184 = load i32, ptr %10, align 4
  %185 = add nsw i32 %184, 2
  store i32 %185, ptr %3, align 4
  br label %186

186:                                              ; preds = %183, %182, %163, %134, %51, %42
  %187 = load i32, ptr %3, align 4
  ret i32 %187
}