; Function Attrs: nounwind uwtable
define i32 @If_CutLutBalanceEval(ptr noundef readonly captures(none) %0, ptr noundef captures(none) initializes((20, 24)) %1) local_unnamed_addr #2 {
  %3 = getelementptr inbounds nuw i8, ptr %1, i64 28
  %4 = load i64, ptr %3, align 4
  %5 = and i64 %4, 4261412864
  %.not = icmp ne i64 %5, 0
  %6 = zext i1 %.not to i64
  %7 = and i64 %4, -12288
  %8 = or disjoint i64 %7, %6
  %9 = or disjoint i64 %8, 8192
  store i64 %9, ptr %3, align 4
  %10 = getelementptr inbounds nuw i8, ptr %1, i64 20
  store i32 0, ptr %10, align 4
  %11 = trunc i64 %4 to i32
  %12 = icmp ult i32 %11, 16777216
  br i1 %12, label %113, label %13

13:                                               ; preds = %2
  %.mask = and i32 %11, -16777216
  %14 = icmp eq i32 %.mask, 16777216
  br i1 %14, label %15, label %.lr.ph

15:                                               ; preds = %13
  %16 = getelementptr i8, ptr %0, i64 40
  %.val61 = load ptr, ptr %16, align 8
  %17 = getelementptr i8, ptr %.val61, i64 8
  %.val61.val = load ptr, ptr %17, align 8
  %18 = getelementptr inbounds nuw i8, ptr %1, i64 36
  %19 = load i32, ptr %18, align 4
  %20 = sext i32 %19 to i64
  %21 = getelementptr inbounds ptr, ptr %.val61.val, i64 %20
  %22 = load ptr, ptr %21, align 8
  %23 = getelementptr inbounds nuw i8, ptr %22, i64 92
  %24 = load float, ptr %23, align 4
  %25 = fptosi float %24 to i32
  br label %113

.lr.ph:                                           ; preds = %13
  %26 = getelementptr i8, ptr %1, i64 16
  %.val64 = load i32, ptr %26, align 4
  %27 = getelementptr inbounds nuw i8, ptr %0, i64 1448
  %28 = lshr i64 %4, 24
  %29 = and i64 %28, 255
  %30 = getelementptr inbounds nuw [16 x ptr], ptr %27, i64 0, i64 %29
  %31 = load ptr, ptr %30, align 8
  %32 = ashr i32 %.val64, 1
  %33 = lshr i32 %11, 24
  %34 = tail call i32 @llvm.umax.i32(i32 %33, i32 6)
  %35 = mul nsw i32 %32, %34
  %36 = getelementptr i8, ptr %31, i64 8
  %.val.i = load ptr, ptr %36, align 8
  %37 = sext i32 %35 to i64
  %38 = getelementptr inbounds i8, ptr %.val.i, i64 %37
  %39 = getelementptr inbounds nuw i8, ptr %0, i64 8
  %40 = load ptr, ptr %39, align 8
  %41 = getelementptr inbounds nuw i8, ptr %40, i64 200
  %42 = load ptr, ptr %41, align 8
  %43 = load i8, ptr %42, align 1
  %44 = sext i8 %43 to i32
  %45 = add nsw i32 %44, -48
  %46 = getelementptr i8, ptr %0, i64 40
  %.val = load ptr, ptr %46, align 8
  %47 = getelementptr i8, ptr %.val, i64 8
  %.val.val = load ptr, ptr %47, align 8
  %48 = getelementptr inbounds nuw i8, ptr %1, i64 36
  %wide.trip.count = zext nneg i32 %33 to i64
  br label %49

49:                                               ; preds = %.lr.ph, %73
  %indvars.iv = phi i64 [ 0, %.lr.ph ], [ %indvars.iv.next, %73 ]
  %.074 = phi i32 [ 0, %.lr.ph ], [ %.1, %73 ]
  %.04973 = phi i32 [ 0, %.lr.ph ], [ %.150, %73 ]
  %.05172 = phi i32 [ -1, %.lr.ph ], [ %.152, %73 ]
  %50 = getelementptr inbounds nuw i8, ptr %38, i64 %indvars.iv
  %51 = load i8, ptr %50, align 1
  %52 = ashr i8 %51, 1
  %53 = sext i8 %52 to i64
  %54 = getelementptr inbounds [0 x i32], ptr %48, i64 0, i64 %53
  %55 = load i32, ptr %54, align 4
  %56 = sext i32 %55 to i64
  %57 = getelementptr inbounds ptr, ptr %.val.val, i64 %56
  %58 = load ptr, ptr %57, align 8
  %59 = getelementptr inbounds nuw i8, ptr %58, i64 92
  %60 = load float, ptr %59, align 4
  %61 = fptosi float %60 to i32
  %62 = icmp slt i32 %.05172, %61
  br i1 %62, label %63, label %66

63:                                               ; preds = %49
  %indvars.iv.tr82 = trunc i64 %indvars.iv to i32
  %64 = shl i32 %indvars.iv.tr82, 1
  %65 = shl nuw i32 1, %64
  br label %73

66:                                               ; preds = %49
  %67 = icmp eq i32 %.05172, %61
  br i1 %67, label %68, label %73

68:                                               ; preds = %66
  %69 = add nsw i32 %.04973, 1
  %indvars.iv.tr = trunc i64 %indvars.iv to i32
  %70 = shl i32 %indvars.iv.tr, 1
  %71 = shl nuw i32 1, %70
  %72 = or i32 %.074, %71
  br label %73

73:                                               ; preds = %63, %68, %66
  %.152 = phi i32 [ %61, %63 ], [ %.05172, %68 ], [ %.05172, %66 ]
  %.150 = phi i32 [ 1, %63 ], [ %69, %68 ], [ %.04973, %66 ]
  %.1 = phi i32 [ %65, %63 ], [ %72, %68 ], [ %.074, %66 ]
  %indvars.iv.next = add nuw nsw i64 %indvars.iv, 1
  %exitcond.not = icmp eq i64 %indvars.iv.next, %wide.trip.count
  br i1 %exitcond.not, label %._crit_edge, label %49, !llvm.loop !27

._crit_edge:                                      ; preds = %73
  %.not59 = icmp sgt i32 %33, %45
  br i1 %.not59, label %76, label %74

74:                                               ; preds = %._crit_edge
  %75 = add nsw i32 %.152, 1
  br label %113

76:                                               ; preds = %._crit_edge
  %77 = and i64 %9, -4096
  %78 = or disjoint i64 %77, 2
  store i64 %78, ptr %3, align 4
  %79 = add nsw i32 %44, -49
  %.not60 = icmp sgt i32 %.150, %79
  br i1 %.not60, label %96, label %80

80:                                               ; preds = %76
  %81 = getelementptr inbounds nuw i8, ptr %0, i64 1056
  %82 = load ptr, ptr %81, align 8
  %83 = getelementptr inbounds nuw i8, ptr %0, i64 1320
  %84 = getelementptr inbounds nuw [16 x ptr], ptr %83, i64 0, i64 %29
  %85 = load ptr, ptr %84, align 8
  %86 = getelementptr i8, ptr %85, i64 8
  %.val3.i = load ptr, ptr %86, align 8
  %87 = sext i32 %32 to i64
  %88 = getelementptr inbounds i32, ptr %.val3.i, i64 %87
  %89 = load i32, ptr %88, align 4
  %90 = and i32 %.val64, 1
  %91 = xor i32 %89, %90
  %92 = tail call i32 @If_DsdManCheckXY(ptr noundef %82, i32 noundef %91, i32 noundef %45, i32 noundef 1, i32 noundef %.1, i32 noundef 0, i32 noundef 0) #14
  store i32 %92, ptr %10, align 4
  %93 = icmp sgt i32 %92, 0
  br i1 %93, label %94, label %._crit_edge79

._crit_edge79:                                    ; preds = %80
  %.val68.pre = load i32, ptr %26, align 4
  %.val69.pre = load i64, ptr %3, align 4
  %.pre = ashr i32 %.val68.pre, 1
  br label %96

94:                                               ; preds = %80
  %95 = add nsw i32 %.152, 1
  br label %113

96:                                               ; preds = %._crit_edge79, %76
  %.pre-phi = phi i32 [ %.pre, %._crit_edge79 ], [ %32, %76 ]
  %.val69 = phi i64 [ %.val69.pre, %._crit_edge79 ], [ %78, %76 ]
  %.val68 = phi i32 [ %.val68.pre, %._crit_edge79 ], [ %.val64, %76 ]
  %97 = getelementptr inbounds nuw i8, ptr %0, i64 1056
  %98 = load ptr, ptr %97, align 8
  %99 = getelementptr inbounds nuw i8, ptr %0, i64 1320
  %100 = lshr i64 %.val69, 24
  %101 = and i64 %100, 255
  %102 = getelementptr inbounds nuw [16 x ptr], ptr %99, i64 0, i64 %101
  %103 = load ptr, ptr %102, align 8
  %104 = getelementptr i8, ptr %103, i64 8
  %.val3.i70 = load ptr, ptr %104, align 8
  %105 = sext i32 %.pre-phi to i64
  %106 = getelementptr inbounds i32, ptr %.val3.i70, i64 %105
  %107 = load i32, ptr %106, align 4
  %108 = and i32 %.val68, 1
  %109 = xor i32 %107, %108
  %110 = tail call i32 @If_DsdManCheckXY(ptr noundef %98, i32 noundef %109, i32 noundef %45, i32 noundef 1, i32 noundef 0, i32 noundef 0, i32 noundef 0) #14
  store i32 %110, ptr %10, align 4
  %111 = icmp eq i32 %110, 0
  %112 = add nsw i32 %.152, 2
  %spec.select = select i1 %111, i32 -1, i32 %112
  br label %113

113:                                              ; preds = %96, %2, %94, %74, %15
  %.054 = phi i32 [ %25, %15 ], [ %75, %74 ], [ %95, %94 ], [ 0, %2 ], [ %spec.select, %96 ]
  ret i32 %.054
}